; Function Attrs: mustprogress nounwind uwtable
define internal fastcc void @_ZN12_GLOBAL__N_111DeclPrinter28VisitObjCCompatibleAliasDeclEPN5clang23ObjCCompatibleAliasDeclE(ptr %.0.val, ptr noundef %0) unnamed_addr #0 align 2 {
  %2 = getelementptr inbounds nuw i8, ptr %.0.val, i64 24
  %3 = load ptr, ptr %2, align 8
  %4 = getelementptr inbounds nuw i8, ptr %.0.val, i64 32
  %5 = load ptr, ptr %4, align 8
  %6 = ptrtoint ptr %3 to i64
  %7 = ptrtoint ptr %5 to i64
  %8 = sub i64 %6, %7
  %9 = icmp ult i64 %8, 21
  br i1 %9, label %10, label %12

10:                                               ; preds = %1
  %11 = tail call noundef nonnull align 8 dereferenceable(48) ptr @_ZN4llvm11raw_ostream5writeEPKcm(ptr noundef nonnull align 8 dereferenceable(48) %.0.val, ptr noundef nonnull @.str.130, i64 noundef 21) #14
  br label %_ZN4llvm11raw_ostreamlsEPKc.exit

12:                                               ; preds = %1
  tail call void @llvm.memcpy.p0.p0.i64(ptr noundef nonnull align 1 dereferenceable(21) %5, ptr noundef nonnull align 1 dereferenceable(21) @.str.130, i64 21, i1 false)
  %13 = load ptr, ptr %4, align 8
  %14 = getelementptr inbounds i8, ptr %13, i64 21
  store ptr %14, ptr %4, align 8
  br label %_ZN4llvm11raw_ostreamlsEPKc.exit

_ZN4llvm11raw_ostreamlsEPKc.exit:                 ; preds = %10, %12
  %.0.i.i = phi ptr [ %11, %10 ], [ %.0.val, %12 ]
  tail call void @_ZNK5clang9NamedDecl9printNameERN4llvm11raw_ostreamE(ptr noundef nonnull align 8 dereferenceable(48) %0, ptr noundef nonnull align 8 dereferenceable(48) %.0.i.i) #14
  %15 = getelementptr inbounds nuw i8, ptr %.0.i.i, i64 32
  %16 = load ptr, ptr %15, align 8
  %17 = getelementptr inbounds nuw i8, ptr %.0.i.i, i64 24
  %18 = load ptr, ptr %17, align 8
  %.not.i = icmp ult ptr %16, %18
  br i1 %.not.i, label %21, label %19

19:                                               ; preds = %_ZN4llvm11raw_ostreamlsEPKc.exit
  %20 = tail call noundef nonnull align 8 dereferenceable(48) ptr @_ZN4llvm11raw_ostream5writeEh(ptr noundef nonnull align 8 dereferenceable(48) %.0.i.i, i8 noundef zeroext 32) #14
  br label %_ZN4llvm11raw_ostreamlsEc.exit

21:                                               ; preds = %_ZN4llvm11raw_ostreamlsEPKc.exit
  %22 = getelementptr inbounds i8, ptr %16, i64 1
  store ptr %22, ptr %15, align 8
  store i8 32, ptr %16, align 1
  br label %_ZN4llvm11raw_ostreamlsEc.exit

_ZN4llvm11raw_ostreamlsEc.exit:                   ; preds = %19, %21
  %.0.i = phi ptr [ %20, %19 ], [ %.0.i.i, %21 ]
  %23 = getelementptr inbounds nuw i8, ptr %0, i64 48
  %24 = load ptr, ptr %23, align 8
  tail call void @_ZNK5clang9NamedDecl9printNameERN4llvm11raw_ostreamE(ptr noundef nonnull align 8 dereferenceable(48) %24, ptr noundef nonnull align 8 dereferenceable(48) %.0.i) #14
  %25 = getelementptr inbounds nuw i8, ptr %.0.i, i64 24
  %26 = load ptr, ptr %25, align 8
  %27 = getelementptr inbounds nuw i8, ptr %.0.i, i64 32
  %28 = load ptr, ptr %27, align 8
  %29 = ptrtoint ptr %26 to i64
  %30 = ptrtoint ptr %28 to i64
  %31 = sub i64 %29, %30
  %32 = icmp ult i64 %31, 2
  br i1 %32, label %33, label %35

33:                                               ; preds = %_ZN4llvm11raw_ostreamlsEc.exit
  %34 = tail call noundef nonnull align 8 dereferenceable(48) ptr @_ZN4llvm11raw_ostream5writeEPKcm(ptr noundef nonnull align 8 dereferenceable(48) %.0.i, ptr noundef nonnull @.str.6, i64 noundef 2) #14
  br label %_ZN4llvm11raw_ostreamlsEPKc.exit5

35:                                               ; preds = %_ZN4llvm11raw_ostreamlsEc.exit
  store i16 2619, ptr %28, align 1
  %36 = load ptr, ptr %27, align 8
  %37 = getelementptr inbounds i8, ptr %36, i64 2
  store ptr %37, ptr %27, align 8
  br label %_ZN4llvm11raw_ostreamlsEPKc.exit5

_ZN4llvm11raw_ostreamlsEPKc.exit5:                ; preds = %33, %35
  ret void
}